; Function Attrs: null_pointer_is_valid sspstrong uwtable
define hidden void @cf_set_tempfile_source(ptr noundef captures(none) %0, ptr noundef %1) local_unnamed_addr #1 {
  %3 = getelementptr inbounds nuw i8, ptr %0, i64 24
  %4 = load ptr, ptr %3, align 8
  %.not = icmp eq ptr %4, null
  br i1 %.not, label %6, label %5

5:                                                ; preds = %2
  tail call void @g_free(ptr noundef nonnull %4)
  br label %6

6:                                                ; preds = %5, %2
  %.not7 = icmp eq ptr %1, null
  %.str.12. = select i1 %.not7, ptr @.str.12, ptr %1
  %7 = tail call noalias ptr @g_strdup(ptr noundef nonnull %.str.12.)
  store ptr %7, ptr %3, align 8
  ret void
}